
foo.o:     file format elf64-littleaarch64


Disassembly of section .text:

0000000000000000 <addfive>:
   0:	d10083ff 	sub	sp, sp, #0x20
   4:	b9001fe0 	str	w0, [sp, #28]
   8:	b9001be1 	str	w1, [sp, #24]
   c:	b90017e2 	str	w2, [sp, #20]
  10:	b90013e3 	str	w3, [sp, #16]
  14:	b9000fe4 	str	w4, [sp, #12]
  18:	b9401fe1 	ldr	w1, [sp, #28]
  1c:	b9401be0 	ldr	w0, [sp, #24]
  20:	0b000021 	add	w1, w1, w0
  24:	b94017e0 	ldr	w0, [sp, #20]
  28:	0b000021 	add	w1, w1, w0
  2c:	b94013e0 	ldr	w0, [sp, #16]
  30:	0b000021 	add	w1, w1, w0
  34:	b9400fe0 	ldr	w0, [sp, #12]
  38:	0b000020 	add	w0, w1, w0
  3c:	910083ff 	add	sp, sp, #0x20
  40:	d65f03c0 	ret

0000000000000044 <main>:
  44:	a9bd7bfd 	stp	x29, x30, [sp, #-48]!
  48:	910003fd 	mov	x29, sp
  4c:	52800020 	mov	w0, #0x1                   	// #1
  50:	b9002fe0 	str	w0, [sp, #44]
  54:	52800040 	mov	w0, #0x2                   	// #2
  58:	b9002be0 	str	w0, [sp, #40]
  5c:	52800060 	mov	w0, #0x3                   	// #3
  60:	b90027e0 	str	w0, [sp, #36]
  64:	52800080 	mov	w0, #0x4                   	// #4
  68:	b90023e0 	str	w0, [sp, #32]
  6c:	528000a0 	mov	w0, #0x5                   	// #5
  70:	b9001fe0 	str	w0, [sp, #28]
  74:	b9401fe4 	ldr	w4, [sp, #28]
  78:	b94023e3 	ldr	w3, [sp, #32]
  7c:	b94027e2 	ldr	w2, [sp, #36]
  80:	b9402be1 	ldr	w1, [sp, #40]
  84:	b9402fe0 	ldr	w0, [sp, #44]
  88:	94000000 	bl	0 <addfive>	88: R_AARCH64_CALL26	addfive
  8c:	b9001be0 	str	w0, [sp, #24]
  90:	528009a0 	mov	w0, #0x4d                  	// #77
  94:	a8c37bfd 	ldp	x29, x30, [sp], #48
  98:	d65f03c0 	ret
